; Function Attrs: nounwind uwtable
define range(i32 -21, 1) i32 @CVodeSetMaxNumSteps(ptr noundef writeonly %0, i64 noundef %1) local_unnamed_addr #0 {
  %3 = icmp eq ptr %0, null
  br i1 %3, label %4, label %5

4:                                                ; preds = %2
  tail call void (ptr, i32, i32, ptr, ptr, ptr, ...) @cvProcessError(ptr noundef null, i32 noundef -21, i32 noundef 202, ptr noundef nonnull @__func__.CVodeSetMaxNumSteps, ptr noundef nonnull @.str, ptr noundef nonnull @.str.1) #7
  br label %10

5:                                                ; preds = %2
  %6 = icmp eq i64 %1, 0
  %7 = getelementptr inbounds nuw i8, ptr %0, i64 720
  br i1 %6, label %8, label %9

8:                                                ; preds = %5
  store i64 500, ptr %7, align 8
  br label %10

9:                                                ; preds = %5
  store i64 %1, ptr %7, align 8
  br label %10

10:                                               ; preds = %8, %9, %4
  %.0 = phi i32 [ -21, %4 ], [ 0, %9 ], [ 0, %8 ]
  ret i32 %.0
}